Certificate:
    Data:
        Version: 3 (0x2)
        Serial Number: 2 (0x2)
    Signature Algorithm: sha256WithRSAEncryption
        Issuer: C=US, ST=WA, O=core-dev/emailAddress=root@localhost
        Validity
            Not Before: May 19 02:09:57 2015 GMT
            Not After : Apr 25 02:09:57 2115 GMT
        Subject: C=US, ST=WA, O=core-dev, CN=vpnclient/emailAddress=root@localhost
        Subject Public Key Info:
            Public Key Algorithm: rsaEncryption
                Public-Key: (2048 bit)
                Modulus:
                    00:ba:4f:ed:57:1b:f1:10:5f:ca:63:bc:64:aa:e5:
                    03:12:e8:6f:2c:aa:8c:e3:0c:f2:27:67:3f:21:4a:
                    e9:1e:24:2b:9e:13:d2:1b:fe:76:e0:f7:05:cb:49:
                    3e:9f:01:50:3f:56:c6:38:78:65:d9:cd:03:41:be:
                    5e:81:c5:55:e3:8e:3f:d4:91:8e:11:f9:15:dc:84:
                    a8:e0:f3:97:ea:f8:8d:fb:b9:99:f3:50:bd:d2:da:
                    32:1a:96:cc:01:e0:bb:0b:48:6b:ac:05:b4:d3:7d:
                    ef:2f:d2:b3:02:3d:55:33:a2:33:12:5e:19:0e:54:
                    9b:35:83:3b:ac:99:d3:67:a8:48:3b:4d:9f:96:e0:
                    eb:f5:da:3c:c0:09:b4:5d:18:c0:39:ef:6b:17:be:
                    75:d1:3e:17:51:04:8e:02:49:fa:ec:3d:1b:9e:58:
                    f3:b7:d7:ba:0b:0c:21:02:32:bc:73:cd:af:72:eb:
                    95:05:4b:7a:0f:16:f7:f6:b3:aa:11:ec:59:40:20:
                    4a:b4:67:56:14:41:ac:b1:2c:31:f4:90:4d:59:8e:
                    12:f1:06:66:aa:34:ee:e1:0f:48:02:8d:86:17:f1:
                    74:87:3a:98:aa:d3:8e:4d:f8:e1:a6:29:c2:37:4e:
                    1f:19:b0:69:17:28:c3:32:43:5c:8d:6b:57:36:3e:
                    e7:a1
                Exponent: 65537 (0x10001)
        X509v3 extensions:
            X509v3 Basic Constraints: 
                CA:FALSE
            X509v3 Subject Key Identifier: 
                55:33:21:40:42:B6:63:7F:EA:A5:20:FA:18:21:C7:27:5B:6F:65:68
            X509v3 Authority Key Identifier: 
                keyid:DB:D2:9C:8D:22:D9:D7:E2:38:A0:8D:6C:3B:BE:33:CE:8D:2A:BE:C8
                DirName:/C=US/ST=WA/O=core-dev/emailAddress=root@localhost
                serial:CE:78:96:91:DB:9B:84:FD

    Signature Algorithm: sha256WithRSAEncryption
         33:e5:aa:b3:19:63:ce:24:c7:ee:2f:11:18:5b:7b:1d:6b:4c:
         71:2d:0b:ea:6f:9b:5e:43:11:45:50:a6:00:fc:19:11:50:46:
         6a:d8:1d:38:eb:9f:3a:81:09:6e:dc:ae:b3:df:71:85:e2:16:
         7e:b8:bf:4c:ec:36:97:ae:58:a6:d9:d1:64:47:cf:8b:e8:0e:
         8c:41:2e:c3:a7:32:ef:a0:90:c2:5c:e5:6f:aa:03:ca:15:7f:
         fb:ef:42:b1:22:28:47:fe:0a:df:58:b5:88:5b:a6:15:f8:13:
         3f:7e:19:da:ec:3f:63:72:0b:e5:c6:94:9f:53:1c:99:60:48:
         25:b5:b4:60:9a:4a:94:ab:68:be:5a:08:67:4c:c8:b5:7e:12:
         32:2c:e9:e7:fb:d1:a2:40:a8:e6:68:0e:37:a1:48:99:17:b6:
         40:f6:50:0a:f7:16:d1:90:e6:8a:3e:b0:c7:21:aa:9a:b9:79:
         6a:69:5c:25:9b:4b:29:b7:0e:13:80:ea:e8:5c:6d:95:cd:5c:
         69:de:20:69:d7:df:20:ec:6f:7b:9f:1d:61:c2:d1:59:6f:1e:
         0a:45:01:f6:25:02:e5:be:fb:91:a9:82:08:c8:42:2a:3e:2c:
         75:bb:4e:9c:0a:b6:07:24:52:e5:4f:f5:81:45:7b:77:ca:19:
         38:56:7f:17:63:5e:1f:a4:be:03:7d:d3:48:fc:e9:43:5c:2b:
         b1:d5:da:44:c0:0c:56:23:4a:7d:bf:c0:ac:c6:9c:93:6d:69:
         9a:b9:02:3e:aa:1b:27:3e:b1:c8:6a:39:96:09:1d:c0:08:c8:
         1c:a4:82:ea:d2:72:e7:e1:47:66:7f:76:ac:d5:8c:99:59:02:
         25:ee:ec:ad:76:65:0f:8a:ba:5f:a7:33:ef:8e:34:71:d2:f5:
         3c:63:b0:c4:b2:65:c2:55:2d:35:d7:13:04:9c:87:d2:76:6b:
         af:37:ba:58:d2:63:e0:fb:9c:a4:3a:97:e4:e6:79:0f:ca:d4:
         07:8c:39:80:4d:5e:d4:09:3a:09:1f:16:1a:58:c0:96:58:19:
         e8:f7:56:bc:bd:fd:23:f4:4b:93:eb:a4:f2:22:7d:7c:d2:f3:
         6b:5a:13:24:a6:b8:1a:33:0c:fa:cd:77:36:12:c8:c6:ac:e9:
         0f:29:1a:4f:c3:3c:92:53:8c:af:80:04:ac:9b:2a:73:af:a8:
         0f:ef:7d:9f:5e:7c:52:d3:03:2e:19:6f:25:b0:f7:17:ef:c9:
         37:b9:50:ad:60:b0:c7:d9:ba:8f:9e:93:27:ba:52:27:70:b8:
         ae:2b:9a:f7:33:2a:fd:a6:51:f5:e2:42:1a:e9:e6:08:5e:62:
         75:e9:b2:1b:ca:ce:cd:d1
-----BEGIN CERTIFICATE-----
MIIE1TCCAr2gAwIBAgIBAjANBgkqhkiG9w0BAQsFADBMMQswCQYDVQQGEwJVUzEL
MAkGA1UECBMCV0ExETAPBgNVBAoTCGNvcmUtZGV2MR0wGwYJKoZIhvcNAQkBFg5y
b290QGxvY2FsaG9zdDAgFw0xNTA1MTkwMjA5NTdaGA8yMTE1MDQyNTAyMDk1N1ow
YDELMAkGA1UEBhMCVVMxCzAJBgNVBAgTAldBMREwDwYDVQQKEwhjb3JlLWRldjES
MBAGA1UEAxMJdnBuY2xpZW50MR0wGwYJKoZIhvcNAQkBFg5yb290QGxvY2FsaG9z
dDCCASIwDQYJKoZIhvcNAQEBBQADggEPADCCAQoCggEBALpP7Vcb8RBfymO8ZKrl
AxLobyyqjOMM8idnPyFK6R4kK54T0hv+duD3BctJPp8BUD9Wxjh4ZdnNA0G+XoHF
VeOOP9SRjhH5FdyEqODzl+r4jfu5mfNQvdLaMhqWzAHguwtIa6wFtNN97y/SswI9
VTOiMxJeGQ5UmzWDO6yZ02eoSDtNn5bg6/XaPMAJtF0YwDnvaxe+ddE+F1EEjgJJ
+uw9G55Y87fXugsMIQIyvHPNr3LrlQVLeg8W9/azqhHsWUAgSrRnVhRBrLEsMfSQ
TVmOEvEGZqo07uEPSAKNhhfxdIc6mKrTjk344aYpwjdOHxmwaRcowzJDXI1rVzY+
56ECAwEAAaOBqzCBqDAJBgNVHRMEAjAAMB0GA1UdDgQWBBRVMyFAQrZjf+qlIPoY
IccnW29laDB8BgNVHSMEdTBzgBTb0pyNItnX4jigjWw7vjPOjSq+yKFQpE4wTDEL
MAkGA1UEBhMCVVMxCzAJBgNVBAgTAldBMREwDwYDVQQKEwhjb3JlLWRldjEdMBsG
CSqGSIb3DQEJARYOcm9vdEBsb2NhbGhvc3SCCQDOeJaR25uE/TANBgkqhkiG9w0B
AQsFAAOCAgEAM+WqsxljziTH7i8RGFt7HWtMcS0L6m+bXkMRRVCmAPwZEVBGatgd
OOufOoEJbtyus99xheIWfri/TOw2l65YptnRZEfPi+gOjEEuw6cy76CQwlzlb6oD
yhV/++9CsSIoR/4K31i1iFumFfgTP34Z2uw/Y3IL5caUn1McmWBIJbW0YJpKlKto
vloIZ0zItX4SMizp5/vRokCo5mgON6FImRe2QPZQCvcW0ZDmij6wxyGqmrl5amlc
JZtLKbcOE4Dq6Fxtlc1cad4gadffIOxve58dYcLRWW8eCkUB9iUC5b77kamCCMhC
Kj4sdbtOnAq2ByRS5U/1gUV7d8oZOFZ/F2NeH6S+A33TSPzpQ1wrsdXaRMAMViNK
fb/ArMack21pmrkCPqobJz6xyGo5lgkdwAjIHKSC6tJy5+FHZn92rNWMmVkCJe7s
rXZlD4q6X6cz7440cdL1PGOwxLJlwlUtNdcTBJyH0nZrrze6WNJj4PucpDqX5OZ5
D8rUB4w5gE1e1Ak6CR8WGljAllgZ6PdWvL39I/RLk+uk8iJ9fNLza1oTJKa4GjMM
+s13NhLIxqzpDykaT8M8klOMr4AErJsqc6+oD+99n158UtMDLhlvJbD3F+/JN7lQ
rWCwx9m6j56TJ7pSJ3C4riua9zMq/aZR9eJCGunmCF5idemyG8rOzdE=
-----END CERTIFICATE-----
