Certificate:
    Data:
        Version: 3 (0x2)
        Serial Number: 1 (0x1)
    Signature Algorithm: sha256WithRSAEncryption
        Issuer: C=US, ST=WA, O=core-dev/emailAddress=root@localhost
        Validity
            Not Before: May 19 02:09:57 2015 GMT
            Not After : Apr 25 02:09:57 2115 GMT
        Subject: C=US, ST=WA, O=core-dev, CN=vpnserver/emailAddress=root@localhost
        Subject Public Key Info:
            Public Key Algorithm: rsaEncryption
                Public-Key: (2048 bit)
                Modulus:
                    00:d2:88:b2:9b:32:ac:38:ca:45:e0:6b:db:1c:92:
                    5d:9a:42:23:df:64:a0:3b:c2:c4:f2:3a:75:bb:d6:
                    54:12:61:6e:aa:ac:0f:a6:2e:d9:3b:63:dc:3d:48:
                    02:f1:36:c8:97:d3:ef:24:6f:7f:dd:b7:9a:9d:6d:
                    c1:c9:e2:11:49:1c:e0:67:d6:b0:b7:62:84:9a:f8:
                    c3:af:4f:f7:77:29:74:01:81:47:49:84:d6:1c:0c:
                    36:41:42:a2:3e:92:28:83:50:7a:9c:fd:f3:66:7c:
                    f8:d9:c7:f6:63:d2:59:d2:fd:9a:a4:9b:75:a6:16:
                    ec:37:de:05:dd:05:a2:31:65:79:66:eb:b3:82:41:
                    af:b9:e8:4a:bc:02:d6:a1:68:49:6c:09:e1:c5:9f:
                    3e:cf:52:76:d9:63:65:7a:a5:34:75:ee:ce:a3:c6:
                    92:f3:0d:2f:7f:b0:b4:12:fe:44:5f:77:10:25:98:
                    b2:45:af:69:c8:9b:13:fc:f9:de:c6:be:b5:cf:62:
                    06:01:32:71:d5:84:1d:14:b9:28:46:80:f6:98:35:
                    12:e4:c8:e4:7a:94:e5:99:a3:6b:34:de:be:33:fe:
                    63:21:a3:cc:c4:64:15:49:e0:9d:57:84:b9:11:e5:
                    05:79:ba:22:6e:e4:24:b0:64:f0:54:13:1a:f4:73:
                    8a:ff
                Exponent: 65537 (0x10001)
        X509v3 extensions:
            X509v3 Basic Constraints: 
                CA:FALSE
            Netscape Cert Type: 
                SSL Server
            Netscape Comment: 
                OpenSSL Generated Server Certificate
            X509v3 Subject Key Identifier: 
                A5:A6:80:4D:3C:CD:E2:FE:AD:32:FD:9D:B2:7C:B6:00:76:16:C0:41
            X509v3 Authority Key Identifier: 
                keyid:DB:D2:9C:8D:22:D9:D7:E2:38:A0:8D:6C:3B:BE:33:CE:8D:2A:BE:C8
                DirName:/C=US/ST=WA/O=core-dev/emailAddress=root@localhost
                serial:CE:78:96:91:DB:9B:84:FD

            X509v3 Extended Key Usage: 
                TLS Web Server Authentication
            X509v3 Key Usage: 
                Digital Signature, Key Encipherment
    Signature Algorithm: sha256WithRSAEncryption
         3b:40:af:3a:c0:95:10:bc:d4:63:4a:1b:0f:9d:af:9c:27:29:
         34:c9:80:dc:c2:2d:72:40:0e:50:15:fe:b4:87:bc:59:56:de:
         81:96:1f:4f:ec:1a:44:ce:23:ba:69:b1:f5:ed:4b:1a:22:cf:
         16:17:29:f9:bb:69:12:3c:42:87:09:48:26:a2:b3:88:40:3e:
         3c:06:92:e1:65:6e:c0:62:50:55:08:5d:a0:4b:3a:0f:ff:9d:
         65:91:b9:bf:d3:69:b9:ac:27:83:2c:fd:5a:bd:58:d3:75:a0:
         70:e6:21:e9:f0:0d:19:a6:5f:2b:2d:1f:c9:fb:72:73:06:40:
         32:5a:f8:81:30:59:b7:cb:3a:a7:3e:6f:af:4c:4b:57:eb:4a:
         d8:24:65:13:c3:86:fd:35:d3:6d:a0:3a:4b:63:40:9e:b4:98:
         e0:a2:c7:f2:71:42:d5:08:72:95:fd:df:8f:05:e9:68:a8:f8:
         13:db:e6:0a:ec:c2:df:29:65:33:52:57:52:e5:7e:1d:09:2c:
         56:0b:cc:d3:2d:dd:46:72:f0:cb:8b:2d:53:c4:d3:9d:63:a6:
         6e:9f:dd:1a:7c:b2:87:d1:9e:4e:a0:b2:36:85:4a:5e:89:f9:
         01:82:94:3d:3a:86:17:84:48:d4:0c:c4:25:25:54:3f:d7:65:
         6b:85:c2:44:b3:6a:f5:74:69:f4:be:b2:13:68:a0:99:82:88:
         07:23:8e:a3:67:e0:88:07:fe:fd:ba:85:f8:8a:1f:ac:1e:7d:
         ac:1e:f9:d1:3d:a8:fd:d9:91:9e:b2:3d:4f:f1:b4:80:9e:0b:
         aa:bb:44:6a:20:08:68:a4:45:0e:21:21:4d:d1:5f:ab:a8:96:
         5a:29:e1:0f:9a:ff:a4:58:c6:80:15:51:98:ac:3c:23:4e:9e:
         8f:a2:34:c1:f6:4c:26:f0:33:8d:db:15:b9:30:03:a7:b3:17:
         31:9f:9a:5a:e7:a1:10:5e:61:57:04:bf:9a:6f:ec:87:15:4e:
         33:2a:0c:e4:4a:b0:66:ab:04:7a:32:4d:66:44:af:d9:ad:41:
         a9:b1:05:c4:7d:2a:ba:2b:bb:c9:1e:5a:ff:cd:e0:e3:54:39:
         b6:be:e2:70:6c:db:e6:71:dc:27:7e:ef:e9:11:1f:cb:fa:cd:
         e1:57:a9:b9:ba:d6:69:fc:c0:d7:57:b0:51:4d:c4:2a:2f:1b:
         99:fc:b7:65:11:99:fe:0b:58:4e:11:aa:06:c6:e1:53:20:c7:
         56:0a:de:a6:65:c1:a6:41:e1:7b:1d:d7:17:45:b0:e4:66:50:
         26:d8:85:c3:c3:93:2d:df:b0:35:6d:29:9a:6b:cc:cc:75:de:
         cf:72:37:8b:2d:24:b2:45
-----BEGIN CERTIFICATE-----
MIIFQTCCAymgAwIBAgIBATANBgkqhkiG9w0BAQsFADBMMQswCQYDVQQGEwJVUzEL
MAkGA1UECBMCV0ExETAPBgNVBAoTCGNvcmUtZGV2MR0wGwYJKoZIhvcNAQkBFg5y
b290QGxvY2FsaG9zdDAgFw0xNTA1MTkwMjA5NTdaGA8yMTE1MDQyNTAyMDk1N1ow
YDELMAkGA1UEBhMCVVMxCzAJBgNVBAgTAldBMREwDwYDVQQKEwhjb3JlLWRldjES
MBAGA1UEAxMJdnBuc2VydmVyMR0wGwYJKoZIhvcNAQkBFg5yb290QGxvY2FsaG9z
dDCCASIwDQYJKoZIhvcNAQEBBQADggEPADCCAQoCggEBANKIspsyrDjKReBr2xyS
XZpCI99koDvCxPI6dbvWVBJhbqqsD6Yu2Ttj3D1IAvE2yJfT7yRvf923mp1twcni
EUkc4GfWsLdihJr4w69P93cpdAGBR0mE1hwMNkFCoj6SKINQepz982Z8+NnH9mPS
WdL9mqSbdaYW7DfeBd0FojFleWbrs4JBr7noSrwC1qFoSWwJ4cWfPs9SdtljZXql
NHXuzqPGkvMNL3+wtBL+RF93ECWYskWvacibE/z53sa+tc9iBgEycdWEHRS5KEaA
9pg1EuTI5HqU5ZmjazTevjP+YyGjzMRkFUngnVeEuRHlBXm6Im7kJLBk8FQTGvRz
iv8CAwEAAaOCARYwggESMAkGA1UdEwQCMAAwEQYJYIZIAYb4QgEBBAQDAgZAMDMG
CWCGSAGG+EIBDQQmFiRPcGVuU1NMIEdlbmVyYXRlZCBTZXJ2ZXIgQ2VydGlmaWNh
dGUwHQYDVR0OBBYEFKWmgE08zeL+rTL9nbJ8tgB2FsBBMHwGA1UdIwR1MHOAFNvS
nI0i2dfiOKCNbDu+M86NKr7IoVCkTjBMMQswCQYDVQQGEwJVUzELMAkGA1UECBMC
V0ExETAPBgNVBAoTCGNvcmUtZGV2MR0wGwYJKoZIhvcNAQkBFg5yb290QGxvY2Fs
aG9zdIIJAM54lpHbm4T9MBMGA1UdJQQMMAoGCCsGAQUFBwMBMAsGA1UdDwQEAwIF
oDANBgkqhkiG9w0BAQsFAAOCAgEAO0CvOsCVELzUY0obD52vnCcpNMmA3MItckAO
UBX+tIe8WVbegZYfT+waRM4jummx9e1LGiLPFhcp+btpEjxChwlIJqKziEA+PAaS
4WVuwGJQVQhdoEs6D/+dZZG5v9Npuawngyz9Wr1Y03WgcOYh6fANGaZfKy0fyfty
cwZAMlr4gTBZt8s6pz5vr0xLV+tK2CRlE8OG/TXTbaA6S2NAnrSY4KLH8nFC1Qhy
lf3fjwXpaKj4E9vmCuzC3yllM1JXUuV+HQksVgvM0y3dRnLwy4stU8TTnWOmbp/d
Gnyyh9GeTqCyNoVKXon5AYKUPTqGF4RI1AzEJSVUP9dla4XCRLNq9XRp9L6yE2ig
mYKIByOOo2fgiAf+/bqF+IofrB59rB750T2o/dmRnrI9T/G0gJ4LqrtEaiAIaKRF
DiEhTdFfq6iWWinhD5r/pFjGgBVRmKw8I06ej6I0wfZMJvAzjdsVuTADp7MXMZ+a
WuehEF5hVwS/mm/shxVOMyoM5EqwZqsEejJNZkSv2a1BqbEFxH0quiu7yR5a/83g
41Q5tr7icGzb5nHcJ37v6REfy/rN4VepubrWafzA11ewUU3EKi8bmfy3ZRGZ/gtY
ThGqBsbhUyDHVgrepmXBpkHhex3XF0Ww5GZQJtiFw8OTLd+wNW0pmmvMzHXez3I3
iy0kskU=
-----END CERTIFICATE-----
